; Function Attrs: nofree nounwind sspstrong memory(readwrite, inaccessiblemem: none) uwtable
define void @cJSONUtils_SortObject(ptr noundef %0) local_unnamed_addr #6 {
  %2 = icmp eq ptr %0, null
  br i1 %2, label %sort_object.exit, label %3

3:                                                ; preds = %1
  %4 = getelementptr inbounds nuw i8, ptr %0, i64 16
  %5 = load ptr, ptr %4, align 8, !tbaa !17
  %6 = tail call fastcc ptr @sort_list(ptr noundef %5, i32 noundef 0)
  store ptr %6, ptr %4, align 8, !tbaa !17
  br label %sort_object.exit

sort_object.exit:                                 ; preds = %1, %3
  ret void
}